; ModuleID = '10/984.c'
source_filename = "10/984.c"
target datalayout = "e-m:e-p270:32:32-p271:32:32-p272:64:64-i64:64-f80:128-n8:16:32:64-S128"
target triple = "x86_64-pc-linux-gnu"

%struct.missile = type { i32, i32 }

@.str = private unnamed_addr constant [3 x i8] c"%d\00", align 1

; Function Attrs: noinline nounwind uwtable
define dso_local void @main() #0 {
  %1 = alloca i32, align 4
  %2 = alloca i32, align 4
  %3 = alloca i32, align 4
  %4 = alloca i32, align 4
  %5 = alloca [30 x %struct.missile], align 16
  store i32 0, i32* %4, align 4
  %6 = call i32 (i8*, ...) @__isoc99_scanf(i8* getelementptr inbounds ([3 x i8], [3 x i8]* @.str, i64 0, i64 0), i32* %1)
  store i32 1, i32* %2, align 4
  br label %7

7:                                                ; preds = %17, %0
  %8 = load i32, i32* %2, align 4
  %9 = load i32, i32* %1, align 4
  %10 = icmp sle i32 %8, %9
  br i1 %10, label %11, label %20

11:                                               ; preds = %7
  %12 = load i32, i32* %2, align 4
  %13 = sext i32 %12 to i64
  %14 = getelementptr inbounds [30 x %struct.missile], [30 x %struct.missile]* %5, i64 0, i64 %13
  %15 = getelementptr inbounds %struct.missile, %struct.missile* %14, i32 0, i32 0
  %16 = call i32 (i8*, ...) @__isoc99_scanf(i8* getelementptr inbounds ([3 x i8], [3 x i8]* @.str, i64 0, i64 0), i32* %15)
  br label %17

17:                                               ; preds = %11
  %18 = load i32, i32* %2, align 4
  %19 = add nsw i32 %18, 1
  store i32 %19, i32* %2, align 4
  br label %7

20:                                               ; preds = %7
  %21 = load i32, i32* %1, align 4
  %22 = sext i32 %21 to i64
  %23 = getelementptr inbounds [30 x %struct.missile], [30 x %struct.missile]* %5, i64 0, i64 %22
  %24 = getelementptr inbounds %struct.missile, %struct.missile* %23, i32 0, i32 1
  store i32 1, i32* %24, align 4
  %25 = load i32, i32* %1, align 4
  %26 = sub nsw i32 %25, 1
  store i32 %26, i32* %2, align 4
  br label %27

27:                                               ; preds = %83, %20
  %28 = load i32, i32* %2, align 4
  %29 = icmp sge i32 %28, 1
  br i1 %29, label %30, label %86

30:                                               ; preds = %27
  %31 = load i32, i32* %2, align 4
  %32 = sext i32 %31 to i64
  %33 = getelementptr inbounds [30 x %struct.missile], [30 x %struct.missile]* %5, i64 0, i64 %32
  %34 = getelementptr inbounds %struct.missile, %struct.missile* %33, i32 0, i32 1
  store i32 1, i32* %34, align 4
  %35 = load i32, i32* %2, align 4
  %36 = add nsw i32 %35, 1
  store i32 %36, i32* %3, align 4
  br label %37

37:                                               ; preds = %79, %30
  %38 = load i32, i32* %3, align 4
  %39 = load i32, i32* %1, align 4
  %40 = icmp sle i32 %38, %39
  br i1 %40, label %41, label %82

41:                                               ; preds = %37
  %42 = load i32, i32* %3, align 4
  %43 = sext i32 %42 to i64
  %44 = getelementptr inbounds [30 x %struct.missile], [30 x %struct.missile]* %5, i64 0, i64 %43
  %45 = getelementptr inbounds %struct.missile, %struct.missile* %44, i32 0, i32 0
  %46 = load i32, i32* %45, align 8
  %47 = load i32, i32* %2, align 4
  %48 = sext i32 %47 to i64
  %49 = getelementptr inbounds [30 x %struct.missile], [30 x %struct.missile]* %5, i64 0, i64 %48
  %50 = getelementptr inbounds %struct.missile, %struct.missile* %49, i32 0, i32 0
  %51 = load i32, i32* %50, align 8
  %52 = icmp sle i32 %46, %51
  br i1 %52, label %53, label %78

53:                                               ; preds = %41
  %54 = load i32, i32* %3, align 4
  %55 = sext i32 %54 to i64
  %56 = getelementptr inbounds [30 x %struct.missile], [30 x %struct.missile]* %5, i64 0, i64 %55
  %57 = getelementptr inbounds %struct.missile, %struct.missile* %56, i32 0, i32 1
  %58 = load i32, i32* %57, align 4
  %59 = add nsw i32 %58, 1
  %60 = load i32, i32* %2, align 4
  %61 = sext i32 %60 to i64
  %62 = getelementptr inbounds [30 x %struct.missile], [30 x %struct.missile]* %5, i64 0, i64 %61
  %63 = getelementptr inbounds %struct.missile, %struct.missile* %62, i32 0, i32 1
  %64 = load i32, i32* %63, align 4
  %65 = icmp sgt i32 %59, %64
  br i1 %65, label %66, label %77

66:                                               ; preds = %53
  %67 = load i32, i32* %3, align 4
  %68 = sext i32 %67 to i64
  %69 = getelementptr inbounds [30 x %struct.missile], [30 x %struct.missile]* %5, i64 0, i64 %68
  %70 = getelementptr inbounds %struct.missile, %struct.missile* %69, i32 0, i32 1
  %71 = load i32, i32* %70, align 4
  %72 = add nsw i32 %71, 1
  %73 = load i32, i32* %2, align 4
  %74 = sext i32 %73 to i64
  %75 = getelementptr inbounds [30 x %struct.missile], [30 x %struct.missile]* %5, i64 0, i64 %74
  %76 = getelementptr inbounds %struct.missile, %struct.missile* %75, i32 0, i32 1
  store i32 %72, i32* %76, align 4
  br label %77

77:                                               ; preds = %66, %53
  br label %78

78:                                               ; preds = %77, %41
  br label %79

79:                                               ; preds = %78
  %80 = load i32, i32* %3, align 4
  %81 = add nsw i32 %80, 1
  store i32 %81, i32* %3, align 4
  br label %37

82:                                               ; preds = %37
  br label %83

83:                                               ; preds = %82
  %84 = load i32, i32* %2, align 4
  %85 = add nsw i32 %84, -1
  store i32 %85, i32* %2, align 4
  br label %27

86:                                               ; preds = %27
  store i32 1, i32* %2, align 4
  br label %87

87:                                               ; preds = %106, %86
  %88 = load i32, i32* %2, align 4
  %89 = load i32, i32* %1, align 4
  %90 = icmp sle i32 %88, %89
  br i1 %90, label %91, label %109

91:                                               ; preds = %87
  %92 = load i32, i32* %2, align 4
  %93 = sext i32 %92 to i64
  %94 = getelementptr inbounds [30 x %struct.missile], [30 x %struct.missile]* %5, i64 0, i64 %93
  %95 = getelementptr inbounds %struct.missile, %struct.missile* %94, i32 0, i32 1
  %96 = load i32, i32* %95, align 4
  %97 = load i32, i32* %4, align 4
  %98 = icmp sgt i32 %96, %97
  br i1 %98, label %99, label %105

99:                                               ; preds = %91
  %100 = load i32, i32* %2, align 4
  %101 = sext i32 %100 to i64
  %102 = getelementptr inbounds [30 x %struct.missile], [30 x %struct.missile]* %5, i64 0, i64 %101
  %103 = getelementptr inbounds %struct.missile, %struct.missile* %102, i32 0, i32 1
  %104 = load i32, i32* %103, align 4
  store i32 %104, i32* %4, align 4
  br label %105

105:                                              ; preds = %99, %91
  br label %106

106:                                              ; preds = %105
  %107 = load i32, i32* %2, align 4
  %108 = add nsw i32 %107, 1
  store i32 %108, i32* %2, align 4
  br label %87

109:                                              ; preds = %87
  %110 = load i32, i32* %4, align 4
  %111 = call i32 (i8*, ...) @printf(i8* getelementptr inbounds ([3 x i8], [3 x i8]* @.str, i64 0, i64 0), i32 %110)
  ret void
}

declare dso_local i32 @__isoc99_scanf(i8*, ...) #1

declare dso_local i32 @printf(i8*, ...) #1


!llvm.module.flags = !{!0}
!llvm.ident = !{!1}

!0 = !{i32 1, !"wchar_size", i32 4}
!1 = !{!"clang version 10.0.0-4ubuntu1 "}
